; Function Attrs: nounwind uwtable
define internal fastcc range(i32 -1, 1) i32 @delitem_knownhash_lock_held(ptr noundef %0, ptr noundef %1, i64 noundef %2) unnamed_addr #0 {
  %4 = alloca ptr, align 8
  call void @llvm.lifetime.start.p0(i64 8, ptr nonnull %4) #23
  %5 = getelementptr i8, ptr %0, i64 8
  %.val = load ptr, ptr %5, align 8, !tbaa !25
  %6 = getelementptr i8, ptr %.val, i64 168
  %.val16 = load i64, ptr %6, align 8, !tbaa !28
  %7 = and i64 %.val16, 536870912
  %.not = icmp eq i64 %7, 0
  br i1 %.not, label %8, label %9

8:                                                ; preds = %3
  tail call void @_PyErr_BadInternalCall(ptr noundef nonnull @.str.3, i32 noundef 2748) #23
  br label %39

9:                                                ; preds = %3
  %10 = call i64 @_Py_dict_lookup(ptr noundef nonnull %0, ptr noundef %1, i64 noundef %2, ptr noundef nonnull %4)
  %11 = icmp eq i64 %10, -3
  br i1 %11, label %39, label %12

12:                                               ; preds = %9
  %13 = icmp eq i64 %10, -1
  %14 = load ptr, ptr %4, align 8
  %15 = icmp eq ptr %14, null
  %or.cond = select i1 %13, i1 true, i1 %15
  br i1 %or.cond, label %16, label %17

16:                                               ; preds = %12
  tail call void @_PyErr_SetKeyError(ptr noundef %1) #23
  br label %39

17:                                               ; preds = %12
  %18 = getelementptr inbounds nuw i8, ptr %0, i64 24
  %19 = load i64, ptr %18, align 8, !tbaa !138
  %20 = trunc i64 %19 to i32
  %21 = and i32 %20, 255
  %.not.i = icmp eq i32 %21, 0
  br i1 %.not.i, label %_PyDict_NotifyEvent.exit, label %22

22:                                               ; preds = %17
  %23 = tail call align 8 ptr @llvm.threadlocal.address.p0(ptr align 8 @_Py_tss_tstate)
  %24 = load ptr, ptr %23, align 8, !tbaa !4
  %25 = getelementptr inbounds nuw i8, ptr %24, i64 16
  %26 = load ptr, ptr %25, align 8, !tbaa !9
  %27 = getelementptr inbounds nuw i8, ptr %26, i64 79672
  br label %28

28:                                               ; preds = %37, %22
  %indvars.iv.i.i = phi i64 [ 0, %22 ], [ %indvars.iv.next.i.i, %37 ]
  %.017.i.i = phi i32 [ %21, %22 ], [ %38, %37 ]
  %29 = and i32 %.017.i.i, 1
  %.not.i.i = icmp eq i32 %29, 0
  br i1 %.not.i.i, label %37, label %30

30:                                               ; preds = %28
  %31 = getelementptr [8 x ptr], ptr %27, i64 0, i64 %indvars.iv.i.i
  %32 = load ptr, ptr %31, align 8, !tbaa !67
  %.not15.i.i = icmp eq ptr %32, null
  br i1 %.not15.i.i, label %37, label %33

33:                                               ; preds = %30
  %34 = tail call i32 %32(i32 noundef 2, ptr noundef nonnull %0, ptr noundef %1, ptr noundef null) #23
  %35 = icmp slt i32 %34, 0
  br i1 %35, label %36, label %37

36:                                               ; preds = %33
  tail call void (ptr, ...) @PyErr_FormatUnraisable(ptr noundef nonnull @.str.43, ptr noundef nonnull @.str.89, ptr noundef nonnull %0) #23
  br label %37

37:                                               ; preds = %36, %33, %30, %28
  %38 = lshr i32 %.017.i.i, 1
  %indvars.iv.next.i.i = add nuw nsw i64 %indvars.iv.i.i, 1
  %exitcond.not.i.i = icmp eq i64 %indvars.iv.next.i.i, 8
  br i1 %exitcond.not.i.i, label %_PyDict_NotifyEvent.exit, label %28, !llvm.loop !151

_PyDict_NotifyEvent.exit:                         ; preds = %37, %17
  tail call fastcc void @delitem_common(ptr noundef nonnull %0, i64 noundef %2, i64 noundef %10, ptr noundef %14)
  br label %39

39:                                               ; preds = %9, %_PyDict_NotifyEvent.exit, %16, %8
  %.0 = phi i32 [ -1, %16 ], [ 0, %_PyDict_NotifyEvent.exit ], [ -1, %8 ], [ -1, %9 ]
  call void @llvm.lifetime.end.p0(i64 8, ptr nonnull %4) #23
  ret i32 %.0
}